target datalayout = "e-m:e-p270:32:32-p271:32:32-p272:64:64-i64:64-i128:128-f80:128-n8:16:32:64-S128"
target triple = "x86_64-pc-linux-gnu"

%"struct.Luau::CodeGen::A64::RegisterA64" = type { i8 }
%"class.Luau::CodeGen::A64::AssemblyBuilderA64" = type { %"class.std::vector", %"class.std::vector.0", %"class.std::__cxx11::basic_string", i8, i32, i32, %"class.std::vector.8", %"class.std::vector.0", i8, i8, i64, ptr, ptr }
%"class.std::vector" = type { %"struct.std::_Vector_base" }
%"struct.std::_Vector_base" = type { %"struct.std::_Vector_base<unsigned char, std::allocator<unsigned char>>::_Vector_impl" }
%"struct.std::_Vector_base<unsigned char, std::allocator<unsigned char>>::_Vector_impl" = type { %"struct.std::_Vector_base<unsigned char, std::allocator<unsigned char>>::_Vector_impl_data" }
%"struct.std::_Vector_base<unsigned char, std::allocator<unsigned char>>::_Vector_impl_data" = type { ptr, ptr, ptr }
%"class.std::__cxx11::basic_string" = type { %"struct.std::__cxx11::basic_string<char>::_Alloc_hider", i64, %union.anon }
%"struct.std::__cxx11::basic_string<char>::_Alloc_hider" = type { ptr }
%union.anon = type { i64, [8 x i8] }
%"class.std::vector.8" = type { %"struct.std::_Vector_base.9" }
%"struct.std::_Vector_base.9" = type { %"struct.std::_Vector_base<Luau::CodeGen::A64::AssemblyBuilderA64::Patch, std::allocator<Luau::CodeGen::A64::AssemblyBuilderA64::Patch>>::_Vector_impl" }
%"struct.std::_Vector_base<Luau::CodeGen::A64::AssemblyBuilderA64::Patch, std::allocator<Luau::CodeGen::A64::AssemblyBuilderA64::Patch>>::_Vector_impl" = type { %"struct.std::_Vector_base<Luau::CodeGen::A64::AssemblyBuilderA64::Patch, std::allocator<Luau::CodeGen::A64::AssemblyBuilderA64::Patch>>::_Vector_impl_data" }
%"struct.std::_Vector_base<Luau::CodeGen::A64::AssemblyBuilderA64::Patch, std::allocator<Luau::CodeGen::A64::AssemblyBuilderA64::Patch>>::_Vector_impl_data" = type { ptr, ptr, ptr }
%"class.std::vector.0" = type { %"struct.std::_Vector_base.1" }
%"struct.std::_Vector_base.1" = type { %"struct.std::_Vector_base<unsigned int, std::allocator<unsigned int>>::_Vector_impl" }
%"struct.std::_Vector_base<unsigned int, std::allocator<unsigned int>>::_Vector_impl" = type { %"struct.std::_Vector_base<unsigned int, std::allocator<unsigned int>>::_Vector_impl_data" }
%"struct.std::_Vector_base<unsigned int, std::allocator<unsigned int>>::_Vector_impl_data" = type { ptr, ptr, ptr }

@.str.48 = private unnamed_addr constant [5 x i8] c"fmov\00", align 1
@.str.49 = private unnamed_addr constant [5 x i8] c"movi\00", align 1
@.str.50 = private unnamed_addr constant [8 x i8] c"movi.4s\00", align 1
@.str.51 = private unnamed_addr constant [8 x i8] c"fmov.4s\00", align 1

; Function Attrs: mustprogress uwtable
define dso_local void @_ZN4Luau7CodeGen3A6418AssemblyBuilderA646commitEv(ptr noundef nonnull align 8 dereferenceable(176) %0) #0 align 2 {
  %2 = alloca ptr, align 8
  store ptr %0, ptr %2, align 8, !tbaa !4
  %3 = load ptr, ptr %2, align 8
  %4 = getelementptr inbounds nuw %"class.Luau::CodeGen::A64::AssemblyBuilderA64", ptr %3, i32 0, i32 12
  %5 = load ptr, ptr %4, align 8, !tbaa !41
  %6 = getelementptr inbounds nuw %"class.Luau::CodeGen::A64::AssemblyBuilderA64", ptr %3, i32 0, i32 11
  %7 = load ptr, ptr %6, align 8, !tbaa !40
  %8 = icmp eq ptr %5, %7
  br i1 %8, label %9, label %10

9:                                                ; preds = %1
  call void @_ZN4Luau7CodeGen3A6418AssemblyBuilderA646extendEv(ptr noundef nonnull align 8 dereferenceable(176) %3)
  br label %10

10:                                               ; preds = %9, %1
  ret void
}

; Function Attrs: mustprogress nounwind uwtable
define dso_local void @_ZN4Luau7CodeGen3A6418AssemblyBuilderA645placeEj(ptr noundef nonnull align 8 dereferenceable(176) %0, i32 noundef %1) #1 align 2 {
  %3 = alloca ptr, align 8
  %4 = alloca i32, align 4
  store ptr %0, ptr %3, align 8, !tbaa !4
  store i32 %1, ptr %4, align 4, !tbaa !11
  %5 = load ptr, ptr %3, align 8
  %6 = load i32, ptr %4, align 4, !tbaa !11
  %7 = getelementptr inbounds nuw %"class.Luau::CodeGen::A64::AssemblyBuilderA64", ptr %5, i32 0, i32 11
  %8 = load ptr, ptr %7, align 8, !tbaa !40
  %9 = getelementptr inbounds nuw i32, ptr %8, i32 1
  store ptr %9, ptr %7, align 8, !tbaa !40
  store i32 %6, ptr %8, align 4, !tbaa !11
  ret void
}

; Function Attrs: mustprogress uwtable
define dso_local void @_ZN4Luau7CodeGen3A6418AssemblyBuilderA649placeFMOVEPKcNS1_11RegisterA64Edj(ptr noundef nonnull align 8 dereferenceable(176) %0, ptr noundef %1, i8 %2, double noundef %3, i32 noundef %4) #0 align 2 {
  %6 = alloca %"struct.Luau::CodeGen::A64::RegisterA64", align 1
  %7 = alloca ptr, align 8
  %8 = alloca ptr, align 8
  %9 = alloca double, align 8
  %10 = alloca i32, align 4
  %11 = alloca %"struct.Luau::CodeGen::A64::RegisterA64", align 1
  %12 = getelementptr inbounds nuw %"struct.Luau::CodeGen::A64::RegisterA64", ptr %6, i32 0, i32 0
  store i8 %2, ptr %12, align 1
  store ptr %0, ptr %7, align 8, !tbaa !4
  store ptr %1, ptr %8, align 8, !tbaa !61
  store double %3, ptr %9, align 8, !tbaa !80
  store i32 %4, ptr %10, align 4, !tbaa !11
  %13 = load ptr, ptr %7, align 8
  %14 = getelementptr inbounds nuw %"class.Luau::CodeGen::A64::AssemblyBuilderA64", ptr %13, i32 0, i32 3
  %15 = load i8, ptr %14, align 8, !tbaa !15, !range !13, !noundef !14
  %16 = trunc i8 %15 to i1
  br i1 %16, label %17, label %22

17:                                               ; preds = %5
  %18 = load ptr, ptr %8, align 8, !tbaa !61
  call void @llvm.memcpy.p0.p0.i64(ptr align 1 %11, ptr align 1 %6, i64 1, i1 false), !tbaa.struct !57
  %19 = load double, ptr %9, align 8, !tbaa !80
  %20 = getelementptr inbounds nuw %"struct.Luau::CodeGen::A64::RegisterA64", ptr %11, i32 0, i32 0
  %21 = load i8, ptr %20, align 1
  call void @_ZN4Luau7CodeGen3A6418AssemblyBuilderA643logEPKcNS1_11RegisterA64Ed(ptr noundef nonnull align 8 dereferenceable(176) %13, ptr noundef %18, i8 %21, double noundef %19)
  br label %22

22:                                               ; preds = %17, %5
  %23 = load i8, ptr %6, align 1
  %24 = lshr i8 %23, 3
  %25 = zext i8 %24 to i32
  %26 = load i32, ptr %10, align 4, !tbaa !11
  %27 = shl i32 %26, 5
  %28 = or i32 %25, %27
  call void @_ZN4Luau7CodeGen3A6418AssemblyBuilderA645placeEj(ptr noundef nonnull align 8 dereferenceable(176) %13, i32 noundef %28)
  call void @_ZN4Luau7CodeGen3A6418AssemblyBuilderA646commitEv(ptr noundef nonnull align 8 dereferenceable(176) %13)
  ret void
}

; Function Attrs: mustprogress nounwind uwtable
define internal noundef i32 @_ZN4Luau7CodeGen3A64L10getFmovImmEd(double noundef %0) #1 {
  %2 = alloca i32, align 4
  %3 = alloca double, align 8
  %4 = alloca i64, align 8
  %5 = alloca i32, align 4
  %6 = alloca i32, align 4
  %7 = alloca i32, align 4
  store double %0, ptr %3, align 8, !tbaa !80
  call void @llvm.lifetime.start.p0(i64 8, ptr %4) #18
  call void @llvm.memcpy.p0.p0.i64(ptr align 8 %4, ptr align 8 %3, i64 8, i1 false)
  %8 = load i64, ptr %4, align 8, !tbaa !50
  %9 = icmp eq i64 %8, 0
  br i1 %9, label %10, label %11

10:                                               ; preds = %1
  store i32 256, ptr %2, align 4
  store i32 1, ptr %5, align 4
  br label %47

11:                                               ; preds = %1
  %12 = load i64, ptr %4, align 8, !tbaa !50
  %13 = and i64 %12, 281474976710655
  %14 = icmp ne i64 %13, 0
  br i1 %14, label %15, label %16

15:                                               ; preds = %11
  store i32 -1, ptr %2, align 4
  store i32 1, ptr %5, align 4
  br label %47

16:                                               ; preds = %11
  call void @llvm.lifetime.start.p0(i64 4, ptr %6) #18
  %17 = load i64, ptr %4, align 8, !tbaa !50
  %18 = lshr i64 %17, 56
  %19 = trunc i64 %18 to i32
  %20 = and i32 %19, 128
  %21 = load i64, ptr %4, align 8, !tbaa !50
  %22 = lshr i64 %21, 48
  %23 = trunc i64 %22 to i32
  %24 = and i32 %23, 127
  %25 = or i32 %20, %24
  store i32 %25, ptr %6, align 4, !tbaa !11
  call void @llvm.lifetime.start.p0(i64 4, ptr %7) #18
  %26 = load i32, ptr %6, align 4, !tbaa !11
  %27 = and i32 %26, 128
  %28 = shl i32 %27, 8
  %29 = load i32, ptr %6, align 4, !tbaa !11
  %30 = and i32 %29, 64
  %31 = icmp ne i32 %30, 0
  %32 = select i1 %31, i32 16320, i32 16384
  %33 = or i32 %28, %32
  %34 = load i32, ptr %6, align 4, !tbaa !11
  %35 = and i32 %34, 63
  %36 = or i32 %33, %35
  store i32 %36, ptr %7, align 4, !tbaa !11
  %37 = load i32, ptr %7, align 4, !tbaa !11
  %38 = load i64, ptr %4, align 8, !tbaa !50
  %39 = lshr i64 %38, 48
  %40 = trunc i64 %39 to i32
  %41 = icmp eq i32 %37, %40
  br i1 %41, label %42, label %44

42:                                               ; preds = %16
  %43 = load i32, ptr %6, align 4, !tbaa !11
  br label %45

44:                                               ; preds = %16
  br label %45

45:                                               ; preds = %44, %42
  %46 = phi i32 [ %43, %42 ], [ -1, %44 ]
  store i32 %46, ptr %2, align 4
  store i32 1, ptr %5, align 4
  call void @llvm.lifetime.end.p0(i64 4, ptr %7) #18
  call void @llvm.lifetime.end.p0(i64 4, ptr %6) #18
  br label %47

47:                                               ; preds = %45, %15, %10
  call void @llvm.lifetime.end.p0(i64 8, ptr %4) #18
  %48 = load i32, ptr %2, align 4
  ret i32 %48
}

; Function Attrs: mustprogress uwtable
define dso_local void @_ZN4Luau7CodeGen3A6418AssemblyBuilderA644fmovENS1_11RegisterA64Ed(ptr noundef nonnull align 8 dereferenceable(176) %0, i8 %1, double noundef %2) #0 align 2 {
  %4 = alloca %"struct.Luau::CodeGen::A64::RegisterA64", align 1
  %5 = alloca ptr, align 8
  %6 = alloca double, align 8
  %7 = alloca i32, align 4
  %8 = alloca %"struct.Luau::CodeGen::A64::RegisterA64", align 1
  %9 = alloca %"struct.Luau::CodeGen::A64::RegisterA64", align 1
  %10 = alloca %"struct.Luau::CodeGen::A64::RegisterA64", align 1
  %11 = alloca %"struct.Luau::CodeGen::A64::RegisterA64", align 1
  %12 = getelementptr inbounds nuw %"struct.Luau::CodeGen::A64::RegisterA64", ptr %4, i32 0, i32 0
  store i8 %1, ptr %12, align 1
  store ptr %0, ptr %5, align 8, !tbaa !4
  store double %2, ptr %6, align 8, !tbaa !80
  %13 = load ptr, ptr %5, align 8
  call void @llvm.lifetime.start.p0(i64 4, ptr %7) #18
  %14 = load double, ptr %6, align 8, !tbaa !80
  %15 = call noundef i32 @_ZN4Luau7CodeGen3A64L10getFmovImmEd(double noundef %14)
  store i32 %15, ptr %7, align 4, !tbaa !11
  %16 = load i8, ptr %4, align 1
  %17 = and i8 %16, 7
  %18 = icmp eq i8 %17, 4
  br i1 %18, label %19, label %34

19:                                               ; preds = %3
  %20 = load i32, ptr %7, align 4, !tbaa !11
  %21 = icmp eq i32 %20, 256
  br i1 %21, label %22, label %26

22:                                               ; preds = %19
  call void @llvm.memcpy.p0.p0.i64(ptr align 1 %8, ptr align 1 %4, i64 1, i1 false), !tbaa.struct !57
  %23 = load double, ptr %6, align 8, !tbaa !80
  %24 = getelementptr inbounds nuw %"struct.Luau::CodeGen::A64::RegisterA64", ptr %8, i32 0, i32 0
  %25 = load i8, ptr %24, align 1
  call void @_ZN4Luau7CodeGen3A6418AssemblyBuilderA649placeFMOVEPKcNS1_11RegisterA64Edj(ptr noundef nonnull align 8 dereferenceable(176) %13, ptr noundef @.str.49, i8 %25, double noundef %23, i32 noundef 24643360)
  br label %33

26:                                               ; preds = %19
  call void @llvm.memcpy.p0.p0.i64(ptr align 1 %9, ptr align 1 %4, i64 1, i1 false), !tbaa.struct !57
  %27 = load double, ptr %6, align 8, !tbaa !80
  %28 = load i32, ptr %7, align 4, !tbaa !11
  %29 = shl i32 %28, 8
  %30 = or i32 15925376, %29
  %31 = getelementptr inbounds nuw %"struct.Luau::CodeGen::A64::RegisterA64", ptr %9, i32 0, i32 0
  %32 = load i8, ptr %31, align 1
  call void @_ZN4Luau7CodeGen3A6418AssemblyBuilderA649placeFMOVEPKcNS1_11RegisterA64Edj(ptr noundef nonnull align 8 dereferenceable(176) %13, ptr noundef @.str.48, i8 %32, double noundef %27, i32 noundef %30)
  br label %33

33:                                               ; preds = %26, %22
  br label %53

34:                                               ; preds = %3
  %35 = load i32, ptr %7, align 4, !tbaa !11
  %36 = icmp eq i32 %35, 256
  br i1 %36, label %37, label %41

37:                                               ; preds = %34
  call void @llvm.memcpy.p0.p0.i64(ptr align 1 %10, ptr align 1 %4, i64 1, i1 false), !tbaa.struct !57
  %38 = load double, ptr %6, align 8, !tbaa !80
  %39 = getelementptr inbounds nuw %"struct.Luau::CodeGen::A64::RegisterA64", ptr %10, i32 0, i32 0
  %40 = load i8, ptr %39, align 1
  call void @_ZN4Luau7CodeGen3A6418AssemblyBuilderA649placeFMOVEPKcNS1_11RegisterA64Edj(ptr noundef nonnull align 8 dereferenceable(176) %13, ptr noundef @.str.50, i8 %40, double noundef %38, i32 noundef 41418784)
  br label %52

41:                                               ; preds = %34
  call void @llvm.memcpy.p0.p0.i64(ptr align 1 %11, ptr align 1 %4, i64 1, i1 false), !tbaa.struct !57
  %42 = load double, ptr %6, align 8, !tbaa !80
  %43 = load i32, ptr %7, align 4, !tbaa !11
  %44 = ashr i32 %43, 5
  %45 = shl i32 %44, 11
  %46 = or i32 41420704, %45
  %47 = load i32, ptr %7, align 4, !tbaa !11
  %48 = and i32 %47, 31
  %49 = or i32 %46, %48
  %50 = getelementptr inbounds nuw %"struct.Luau::CodeGen::A64::RegisterA64", ptr %11, i32 0, i32 0
  %51 = load i8, ptr %50, align 1
  call void @_ZN4Luau7CodeGen3A6418AssemblyBuilderA649placeFMOVEPKcNS1_11RegisterA64Edj(ptr noundef nonnull align 8 dereferenceable(176) %13, ptr noundef @.str.51, i8 %51, double noundef %42, i32 noundef %49)
  br label %52

52:                                               ; preds = %41, %37
  br label %53

53:                                               ; preds = %52, %33
  call void @llvm.lifetime.end.p0(i64 4, ptr %7) #18
  ret void
}