; Function Attrs: mustprogress uwtable
define dso_local void @_ZN4Luau7CodeGen3A6418AssemblyBuilderA644fmovENS1_11RegisterA64Ed(ptr noundef nonnull align 8 dereferenceable(176) %0, i8 %1, double noundef %2) local_unnamed_addr #0 align 2 {
  %4 = bitcast double %2 to i64
  %5 = icmp eq i64 %4, 0
  br i1 %5, label %_ZN4Luau7CodeGen3A64L10getFmovImmEd.exit.thread29, label %6

6:                                                ; preds = %3
  %7 = and i64 %4, 281474976710655
  %.not.i = icmp eq i64 %7, 0
  br i1 %.not.i, label %_ZN4Luau7CodeGen3A64L10getFmovImmEd.exit, label %_ZN4Luau7CodeGen3A64L10getFmovImmEd.exit.thread

_ZN4Luau7CodeGen3A64L10getFmovImmEd.exit:         ; preds = %6
  %8 = lshr i64 %4, 56
  %9 = trunc nuw nsw i64 %8 to i32
  %10 = and i32 %9, 128
  %11 = lshr exact i64 %4, 48
  %12 = trunc nuw nsw i64 %11 to i32
  %13 = and i32 %12, 127
  %14 = or disjoint i32 %10, %13
  %15 = shl nuw nsw i32 %10, 8
  %16 = and i32 %12, 64
  %17 = and i32 %12, 63
  %reass.sub = sub nsw i32 %17, %16
  %18 = add nsw i32 %reass.sub, 16384
  %19 = add nuw nsw i32 %18, %15
  %20 = icmp eq i32 %19, %12
  %21 = select i1 %20, i32 %14, i32 -1
  %22 = and i8 %1, 7
  %23 = icmp eq i8 %22, 4
  br i1 %23, label %.thread, label %.thread26

_ZN4Luau7CodeGen3A64L10getFmovImmEd.exit.thread29: ; preds = %3
  %24 = and i8 %1, 7
  %25 = icmp eq i8 %24, 4
  %26 = getelementptr inbounds nuw i8, ptr %0, i64 80
  %27 = load i8, ptr %26, align 8, !tbaa !14, !range !46, !noundef !47
  %28 = trunc nuw i8 %27 to i1
  br i1 %25, label %31, label %59

_ZN4Luau7CodeGen3A64L10getFmovImmEd.exit.thread:  ; preds = %6
  %29 = and i8 %1, 7
  %30 = icmp eq i8 %29, 4
  br i1 %30, label %.thread, label %.thread26

31:                                               ; preds = %_ZN4Luau7CodeGen3A64L10getFmovImmEd.exit.thread29
  br i1 %28, label %32, label %33

32:                                               ; preds = %31
  tail call void @_ZN4Luau7CodeGen3A6418AssemblyBuilderA643logEPKcNS1_11RegisterA64Ed(ptr noundef nonnull align 8 dereferenceable(176) %0, ptr noundef nonnull @.str.49, i8 %1, double noundef %2)
  br label %33

33:                                               ; preds = %32, %31
  %34 = lshr i8 %1, 3
  %35 = zext nneg i8 %34 to i32
  %36 = or disjoint i32 %35, 788587520
  %37 = getelementptr inbounds nuw i8, ptr %0, i64 160
  %38 = load ptr, ptr %37, align 8, !tbaa !39
  %39 = getelementptr inbounds nuw i8, ptr %38, i64 4
  store ptr %39, ptr %37, align 8, !tbaa !39
  store i32 %36, ptr %38, align 4, !tbaa !48
  %40 = getelementptr inbounds nuw i8, ptr %0, i64 168
  %41 = load ptr, ptr %40, align 8, !tbaa !40
  %42 = icmp eq ptr %41, %39
  br i1 %42, label %_ZN4Luau7CodeGen3A6418AssemblyBuilderA649placeFMOVEPKcNS1_11RegisterA64Edj.exit.sink.split, label %_ZN4Luau7CodeGen3A6418AssemblyBuilderA649placeFMOVEPKcNS1_11RegisterA64Edj.exit

.thread:                                          ; preds = %_ZN4Luau7CodeGen3A64L10getFmovImmEd.exit, %_ZN4Luau7CodeGen3A64L10getFmovImmEd.exit.thread
  %.0.i2325 = phi i32 [ -1, %_ZN4Luau7CodeGen3A64L10getFmovImmEd.exit.thread ], [ %21, %_ZN4Luau7CodeGen3A64L10getFmovImmEd.exit ]
  %43 = shl nsw i32 %.0.i2325, 13
  %44 = getelementptr inbounds nuw i8, ptr %0, i64 80
  %45 = load i8, ptr %44, align 8, !tbaa !14, !range !46, !noundef !47
  %46 = trunc nuw i8 %45 to i1
  br i1 %46, label %47, label %48

47:                                               ; preds = %.thread
  tail call void @_ZN4Luau7CodeGen3A6418AssemblyBuilderA643logEPKcNS1_11RegisterA64Ed(ptr noundef nonnull align 8 dereferenceable(176) %0, ptr noundef nonnull @.str.48, i8 %1, double noundef %2)
  br label %48

48:                                               ; preds = %47, %.thread
  %49 = lshr i8 %1, 3
  %50 = zext nneg i8 %49 to i32
  %51 = or disjoint i32 %43, %50
  %52 = or i32 %51, 509612032
  %53 = getelementptr inbounds nuw i8, ptr %0, i64 160
  %54 = load ptr, ptr %53, align 8, !tbaa !39
  %55 = getelementptr inbounds nuw i8, ptr %54, i64 4
  store ptr %55, ptr %53, align 8, !tbaa !39
  store i32 %52, ptr %54, align 4, !tbaa !48
  %56 = getelementptr inbounds nuw i8, ptr %0, i64 168
  %57 = load ptr, ptr %56, align 8, !tbaa !40
  %58 = icmp eq ptr %57, %55
  br i1 %58, label %_ZN4Luau7CodeGen3A6418AssemblyBuilderA649placeFMOVEPKcNS1_11RegisterA64Edj.exit.sink.split, label %_ZN4Luau7CodeGen3A6418AssemblyBuilderA649placeFMOVEPKcNS1_11RegisterA64Edj.exit

59:                                               ; preds = %_ZN4Luau7CodeGen3A64L10getFmovImmEd.exit.thread29
  br i1 %28, label %60, label %61

60:                                               ; preds = %59
  tail call void @_ZN4Luau7CodeGen3A6418AssemblyBuilderA643logEPKcNS1_11RegisterA64Ed(ptr noundef nonnull align 8 dereferenceable(176) %0, ptr noundef nonnull @.str.50, i8 %1, double noundef %2)
  br label %61

61:                                               ; preds = %60, %59
  %62 = lshr i8 %1, 3
  %63 = zext nneg i8 %62 to i32
  %64 = or disjoint i32 %63, 1325401088
  %65 = getelementptr inbounds nuw i8, ptr %0, i64 160
  %66 = load ptr, ptr %65, align 8, !tbaa !39
  %67 = getelementptr inbounds nuw i8, ptr %66, i64 4
  store ptr %67, ptr %65, align 8, !tbaa !39
  store i32 %64, ptr %66, align 4, !tbaa !48
  %68 = getelementptr inbounds nuw i8, ptr %0, i64 168
  %69 = load ptr, ptr %68, align 8, !tbaa !40
  %70 = icmp eq ptr %69, %67
  br i1 %70, label %_ZN4Luau7CodeGen3A6418AssemblyBuilderA649placeFMOVEPKcNS1_11RegisterA64Edj.exit.sink.split, label %_ZN4Luau7CodeGen3A6418AssemblyBuilderA649placeFMOVEPKcNS1_11RegisterA64Edj.exit

.thread26:                                        ; preds = %_ZN4Luau7CodeGen3A64L10getFmovImmEd.exit, %_ZN4Luau7CodeGen3A64L10getFmovImmEd.exit.thread
  %.0.i2228 = phi i32 [ -1, %_ZN4Luau7CodeGen3A64L10getFmovImmEd.exit.thread ], [ %21, %_ZN4Luau7CodeGen3A64L10getFmovImmEd.exit ]
  %71 = shl nsw i32 %.0.i2228, 6
  %72 = and i32 %71, 92796928
  %73 = and i32 %.0.i2228, 31
  %74 = or disjoint i32 %72, %73
  %75 = getelementptr inbounds nuw i8, ptr %0, i64 80
  %76 = load i8, ptr %75, align 8, !tbaa !14, !range !46, !noundef !47
  %77 = trunc nuw i8 %76 to i1
  br i1 %77, label %78, label %79

78:                                               ; preds = %.thread26
  tail call void @_ZN4Luau7CodeGen3A6418AssemblyBuilderA643logEPKcNS1_11RegisterA64Ed(ptr noundef nonnull align 8 dereferenceable(176) %0, ptr noundef nonnull @.str.51, i8 %1, double noundef %2)
  br label %79

79:                                               ; preds = %78, %.thread26
  %80 = lshr i8 %1, 3
  %81 = zext nneg i8 %80 to i32
  %82 = shl nuw i32 %74, 5
  %83 = or disjoint i32 %82, %81
  %84 = or disjoint i32 %83, 1325462528
  %85 = getelementptr inbounds nuw i8, ptr %0, i64 160
  %86 = load ptr, ptr %85, align 8, !tbaa !39
  %87 = getelementptr inbounds nuw i8, ptr %86, i64 4
  store ptr %87, ptr %85, align 8, !tbaa !39
  store i32 %84, ptr %86, align 4, !tbaa !48
  %88 = getelementptr inbounds nuw i8, ptr %0, i64 168
  %89 = load ptr, ptr %88, align 8, !tbaa !40
  %90 = icmp eq ptr %89, %87
  br i1 %90, label %_ZN4Luau7CodeGen3A6418AssemblyBuilderA649placeFMOVEPKcNS1_11RegisterA64Edj.exit.sink.split, label %_ZN4Luau7CodeGen3A6418AssemblyBuilderA649placeFMOVEPKcNS1_11RegisterA64Edj.exit

_ZN4Luau7CodeGen3A6418AssemblyBuilderA649placeFMOVEPKcNS1_11RegisterA64Edj.exit.sink.split: ; preds = %79, %61, %48, %33
  tail call void @_ZN4Luau7CodeGen3A6418AssemblyBuilderA646extendEv(ptr noundef nonnull align 8 dereferenceable(176) %0)
  br label %_ZN4Luau7CodeGen3A6418AssemblyBuilderA649placeFMOVEPKcNS1_11RegisterA64Edj.exit

_ZN4Luau7CodeGen3A6418AssemblyBuilderA649placeFMOVEPKcNS1_11RegisterA64Edj.exit: ; preds = %_ZN4Luau7CodeGen3A6418AssemblyBuilderA649placeFMOVEPKcNS1_11RegisterA64Edj.exit.sink.split, %79, %61, %48, %33
  ret void
}